Certificate:
    Data:
        Version: 3 (0x2)
        Serial Number: 268435669 (0x100000d5)
        Signature Algorithm: sha256WithRSAEncryption
        Issuer: C=DE, ST=Hessen, O=privacyidea, CN=CA001
        Validity
            Not Before: Nov 13 14:12:15 2023 GMT
            Not After : Nov 12 14:12:15 2024 GMT
        Subject: CN=cornelius
        Subject Public Key Info:
            Public Key Algorithm: rsaEncryption
                RSA Public-Key: (2048 bit)
                Modulus:
                    00:d2:43:6c:13:4c:68:d4:37:82:70:5b:d0:13:4d:
                    f9:5b:3f:02:2a:60:1a:d5:8b:ac:12:e8:3d:02:7a:
                    b1:76:1e:90:54:39:06:dd:1a:29:45:1d:b0:d5:fc:
                    43:d3:8e:50:3f:27:60:16:80:50:16:4a:f4:ae:66:
                    ea:06:0a:2c:ae:7e:8e:d1:f9:d7:72:26:a7:31:ab:
                    ec:2f:4f:38:31:6b:c9:57:41:0b:3d:43:ac:18:eb:
                    1b:30:10:bf:e5:3d:ab:a3:18:96:9c:35:29:0e:01:
                    6f:82:e5:d5:29:b1:8a:57:5e:f2:df:99:00:48:71:
                    8b:e7:8b:50:fa:5a:99:de:42:95:2c:e3:d1:3d:61:
                    4f:52:04:dd:71:d6:2e:ac:4f:2d:97:fb:ea:ad:c1:
                    98:5a:a2:a1:89:b4:16:1a:9a:e8:f7:44:df:70:f9:
                    9e:4f:be:54:42:51:98:a2:13:19:73:38:4a:d0:7e:
                    33:a1:f1:b8:64:09:33:e0:ca:4a:06:4c:8c:96:b4:
                    7a:dd:20:04:28:1e:f6:62:77:16:e4:51:68:1f:7d:
                    30:7d:cc:a9:14:82:66:f3:a0:d6:b9:62:fc:fa:b0:
                    43:f9:2c:cc:da:e2:b9:fd:39:f9:24:07:e0:21:0a:
                    55:1a:6b:f0:33:8a:23:9e:29:05:fe:70:5d:8e:7a:
                    4f:8f
                Exponent: 65537 (0x10001)
        X509v3 extensions:
            X509v3 Key Usage: 
                Digital Signature, Key Encipherment
            X509v3 Basic Constraints: 
                CA:FALSE
            Netscape Cert Type: 
                SSL Server
            Netscape Comment: 
                OpenSSL Generated Server Certificate
            X509v3 Subject Key Identifier: 
                74:5D:5C:98:95:A2:B1:7F:05:C5:12:6E:36:AD:5C:0E:00:1A:BE:15
            X509v3 Authority Key Identifier: 
                keyid:F4:A7:C0:CC:91:46:AF:64:F3:91:F2:27:F8:C8:B2:6F:8A:87:32:73
                DirName:/C=DE/ST=Hessen/O=privacyidea/CN=CA001
                serial:FB:C8:EB:AC:83:CD:12:07

            X509v3 Extended Key Usage: 
                TLS Web Server Authentication
    Signature Algorithm: sha256WithRSAEncryption
         8c:ae:5d:e0:42:68:eb:eb:a3:f9:6b:6f:4b:a8:bc:4d:17:d4:
         34:55:3f:f0:cf:eb:08:83:5e:7c:58:35:b6:e0:9f:1b:18:b3:
         ba:02:c3:d6:b8:39:12:74:8b:42:30:ad:be:c1:c7:8b:3e:3b:
         62:3c:9b:7d:c7:f7:55:97:ca:66:2f:91:15:06:91:66:f0:2f:
         5b:2e:3c:0a:4d:0c:ad:53:77:f0:a4:34:95:2d:ef:38:d1:da:
         17:03:44:15:b0:16:45:d4:e3:1d:e8:f4:1e:d4:ef:57:db:9b:
         8c:26:d0:05:5d:09:22:6c:2e:48:01:13:41:bd:96:a4:38:65:
         77:a1:21:59:6a:19:72:ad:dd:9a:db:6f:15:49:46:c7:dc:95:
         a3:87:fd:17:98:77:d5:0f:f3:67:07:3b:23:04:e9:40:2e:5b:
         d7:f5:b0:1e:33:af:24:98:84:ac:ea:f2:d8:42:4d:37:b4:a2:
         9d:f0:67:11:ad:90:67:37:80:d6:0b:5e:13:c3:d0:65:9f:59:
         cf:08:87:d2:03:77:c7:51:b7:33:1c:b6:cd:68:06:96:8b:9a:
         b0:2e:70:1a:87:f6:47:ca:b5:02:85:fb:37:b5:9c:f1:13:33:
         c9:85:33:29:b1:33:03:e9:a2:29:d3:56:f6:f2:99:8c:f5:89:
         bd:04:e2:c0
-----BEGIN CERTIFICATE-----
MIID5jCCAs6gAwIBAgIEEAAA1TANBgkqhkiG9w0BAQsFADBEMQswCQYDVQQGEwJE
RTEPMA0GA1UECAwGSGVzc2VuMRQwEgYDVQQKDAtwcml2YWN5aWRlYTEOMAwGA1UE
AwwFQ0EwMDEwHhcNMjMxMTEzMTQxMjE1WhcNMjQxMTEyMTQxMjE1WjAUMRIwEAYD
VQQDDAljb3JuZWxpdXMwggEiMA0GCSqGSIb3DQEBAQUAA4IBDwAwggEKAoIBAQDS
Q2wTTGjUN4JwW9ATTflbPwIqYBrVi6wS6D0CerF2HpBUOQbdGilFHbDV/EPTjlA/
J2AWgFAWSvSuZuoGCiyufo7R+ddyJqcxq+wvTzgxa8lXQQs9Q6wY6xswEL/lPauj
GJacNSkOAW+C5dUpsYpXXvLfmQBIcYvni1D6WpneQpUs49E9YU9SBN1x1i6sTy2X
++qtwZhaoqGJtBYamuj3RN9w+Z5PvlRCUZiiExlzOErQfjOh8bhkCTPgykoGTIyW
tHrdIAQoHvZidxbkUWgffTB9zKkUgmbzoNa5Yvz6sEP5LMza4rn9OfkkB+AhClUa
a/AziiOeKQX+cF2Oek+PAgMBAAGjggEOMIIBCjALBgNVHQ8EBAMCBaAwCQYDVR0T
BAIwADARBglghkgBhvhCAQEEBAMCBkAwMwYJYIZIAYb4QgENBCYWJE9wZW5TU0wg
R2VuZXJhdGVkIFNlcnZlciBDZXJ0aWZpY2F0ZTAdBgNVHQ4EFgQUdF1cmJWisX8F
xRJuNq1cDgAavhUwdAYDVR0jBG0wa4AU9KfAzJFGr2TzkfIn+Miyb4qHMnOhSKRG
MEQxCzAJBgNVBAYTAkRFMQ8wDQYDVQQIDAZIZXNzZW4xFDASBgNVBAoMC3ByaXZh
Y3lpZGVhMQ4wDAYDVQQDDAVDQTAwMYIJAPvI66yDzRIHMBMGA1UdJQQMMAoGCCsG
AQUFBwMBMA0GCSqGSIb3DQEBCwUAA4IBAQCMrl3gQmjr66P5a29LqLxNF9Q0VT/w
z+sIg158WDW24J8bGLO6AsPWuDkSdItCMK2+wceLPjtiPJt9x/dVl8pmL5EVBpFm
8C9bLjwKTQytU3fwpDSVLe840doXA0QVsBZF1OMd6PQe1O9X25uMJtAFXQkibC5I
ARNBvZakOGV3oSFZahlyrd2a228VSUbH3JWjh/0XmHfVD/NnBzsjBOlALlvX9bAe
M68kmISs6vLYQk03tKKd8GcRrZBnN4DWC14Tw9Bln1nPCIfSA3fHUbczHLbNaAaW
i5qwLnAah/ZHyrUChfs3tZzxEzPJhTMpsTMD6aIp01b28pmM9Ym9BOLA
-----END CERTIFICATE-----
