Certificate:
    Data:
        Version: 3 (0x2)
        Serial Number: 268435671 (0x100000d7)
        Signature Algorithm: sha256WithRSAEncryption
        Issuer: C=DE, ST=Hessen, O=privacyidea, CN=CA001
        Validity
            Not Before: Nov 13 14:13:16 2023 GMT
            Not After : Nov 12 14:13:16 2024 GMT
        Subject: CN=selfservice,CN=user,O=realm1/emailAddress=meine
        Subject Public Key Info:
            Public Key Algorithm: rsaEncryption
                RSA Public-Key: (2048 bit)
                Modulus:
                    00:cf:3c:d4:33:0e:12:c4:e6:da:cd:b6:56:a1:1c:
                    26:bb:26:1c:8a:4a:73:a8:58:8a:b6:1e:b3:8b:99:
                    d2:1d:07:c2:92:89:79:c0:69:d8:c8:df:28:61:98:
                    1e:b3:fe:ae:2b:bd:78:a9:f7:6e:47:dc:a3:a0:16:
                    8c:85:02:c1:4e:92:fd:72:6e:f0:c8:03:29:9b:b8:
                    00:6e:c0:83:95:c8:34:20:36:9c:b3:e5:e4:e6:76:
                    73:a3:1a:ad:40:96:e0:53:54:00:ec:76:79:9a:c6:
                    0d:7e:b6:bd:29:ec:83:f3:cb:89:a4:cb:6c:00:ba:
                    0c:c5:78:0f:ff:69:b8:94:f4:04:70:43:3f:d8:9e:
                    d7:a7:fb:5d:ce:75:8e:da:e7:c4:07:b1:9d:de:6f:
                    88:4b:b6:4d:9a:cf:f9:bc:fa:9f:cd:32:6d:f6:3a:
                    0b:0d:23:42:78:ec:97:42:bf:0e:4d:60:56:e1:d3:
                    02:f2:19:cb:84:57:90:e5:70:a1:a2:83:35:86:e2:
                    da:86:9f:f9:8a:c4:79:b3:52:28:da:cb:bb:34:ca:
                    d3:da:91:4a:cf:8d:76:a2:b2:6b:9b:f9:96:fd:09:
                    2a:da:11:23:4d:f0:cb:d6:b2:b1:0e:12:6c:9a:19:
                    65:98:87:ca:e4:ee:24:ce:44:ac:90:8f:9d:1b:c5:
                    2a:9d
                Exponent: 65537 (0x10001)
        X509v3 extensions:
            X509v3 Key Usage: 
                Digital Signature, Key Encipherment
            X509v3 Basic Constraints: 
                CA:FALSE
            Netscape Cert Type: 
                SSL Server
            Netscape Comment: 
                OpenSSL Generated Server Certificate
            X509v3 Subject Key Identifier: 
                4D:07:90:AD:FF:1D:0D:E7:1A:DD:D6:2E:FA:BA:34:CB:AA:1F:24:C6
            X509v3 Authority Key Identifier: 
                keyid:F4:A7:C0:CC:91:46:AF:64:F3:91:F2:27:F8:C8:B2:6F:8A:87:32:73
                DirName:/C=DE/ST=Hessen/O=privacyidea/CN=CA001
                serial:FB:C8:EB:AC:83:CD:12:07

            X509v3 Extended Key Usage: 
                TLS Web Server Authentication
    Signature Algorithm: sha256WithRSAEncryption
         37:46:07:aa:ba:45:3d:b0:45:55:e8:35:0a:b2:a9:20:af:d7:
         e3:c0:49:51:e5:a9:89:a9:f3:b7:87:c8:0d:c3:95:c6:db:d6:
         82:ee:48:b2:1a:c9:7c:4d:69:0c:1f:4e:b1:b4:e8:6f:bb:46:
         ab:25:fc:0a:72:24:6c:37:dc:59:aa:74:fa:1a:08:89:19:c8:
         6a:47:87:6e:51:1f:6f:85:c1:0c:10:f5:7c:ad:c6:84:7d:24:
         2b:9b:a9:be:ed:ef:c6:91:c9:1f:3e:74:b2:8a:c5:ad:d9:95:
         59:53:02:f6:43:8e:1c:95:43:90:4c:0e:c2:31:75:df:64:b3:
         fd:18:81:6c:c9:34:8f:bc:3d:4a:89:d4:96:8d:f0:23:4f:3f:
         b0:f4:f4:dc:f5:8f:a6:ba:47:4b:a0:c7:1f:f4:42:85:91:e1:
         32:d5:58:3e:d8:0b:ab:6c:cd:29:d1:f7:93:dd:88:6d:4e:4c:
         9f:c5:d4:d0:95:e6:38:e6:48:34:33:72:4a:da:b7:9f:66:f0:
         ba:d9:80:d7:88:03:97:eb:55:3b:f1:70:f5:6c:a8:61:09:89:
         7d:5a:33:a4:48:cf:e8:61:d5:57:31:bf:22:ea:5d:9d:c5:d1:
         52:e7:ea:83:1f:52:b7:5b:8b:60:1e:9c:36:af:46:86:84:1b:
         c1:14:c2:29
-----BEGIN CERTIFICATE-----
MIIEDzCCAvegAwIBAgIEEAAA1zANBgkqhkiG9w0BAQsFADBEMQswCQYDVQQGEwJE
RTEPMA0GA1UECAwGSGVzc2VuMRQwEgYDVQQKDAtwcml2YWN5aWRlYTEOMAwGA1UE
AwwFQ0EwMDEwHhcNMjMxMTEzMTQxMzE2WhcNMjQxMTEyMTQxMzE2WjA9MSUwIwYD
VQQDDBxzZWxmc2VydmljZSxDTj11c2VyLE89cmVhbG0xMRQwEgYJKoZIhvcNAQkB
FgVtZWluZTCCASIwDQYJKoZIhvcNAQEBBQADggEPADCCAQoCggEBAM881DMOEsTm
2s22VqEcJrsmHIpKc6hYirYes4uZ0h0HwpKJecBp2MjfKGGYHrP+riu9eKn3bkfc
o6AWjIUCwU6S/XJu8MgDKZu4AG7Ag5XINCA2nLPl5OZ2c6MarUCW4FNUAOx2eZrG
DX62vSnsg/PLiaTLbAC6DMV4D/9puJT0BHBDP9ie16f7Xc51jtrnxAexnd5viEu2
TZrP+bz6n80ybfY6Cw0jQnjsl0K/Dk1gVuHTAvIZy4RXkOVwoaKDNYbi2oaf+YrE
ebNSKNrLuzTK09qRSs+NdqKya5v5lv0JKtoRI03wy9aysQ4SbJoZZZiHyuTuJM5E
rJCPnRvFKp0CAwEAAaOCAQ4wggEKMAsGA1UdDwQEAwIFoDAJBgNVHRMEAjAAMBEG
CWCGSAGG+EIBAQQEAwIGQDAzBglghkgBhvhCAQ0EJhYkT3BlblNTTCBHZW5lcmF0
ZWQgU2VydmVyIENlcnRpZmljYXRlMB0GA1UdDgQWBBRNB5Ct/x0N5xrd1i76ujTL
qh8kxjB0BgNVHSMEbTBrgBT0p8DMkUavZPOR8if4yLJviocyc6FIpEYwRDELMAkG
A1UEBhMCREUxDzANBgNVBAgMBkhlc3NlbjEUMBIGA1UECgwLcHJpdmFjeWlkZWEx
DjAMBgNVBAMMBUNBMDAxggkA+8jrrIPNEgcwEwYDVR0lBAwwCgYIKwYBBQUHAwEw
DQYJKoZIhvcNAQELBQADggEBADdGB6q6RT2wRVXoNQqyqSCv1+PASVHlqYmp87eH
yA3Dlcbb1oLuSLIayXxNaQwfTrG06G+7Rqsl/ApyJGw33FmqdPoaCIkZyGpHh25R
H2+FwQwQ9XytxoR9JCubqb7t78aRyR8+dLKKxa3ZlVlTAvZDjhyVQ5BMDsIxdd9k
s/0YgWzJNI+8PUqJ1JaN8CNPP7D09Nz1j6a6R0ugxx/0QoWR4TLVWD7YC6tszSnR
95PdiG1OTJ/F1NCV5jjmSDQzckrat59m8LrZgNeIA5frVTvxcPVsqGEJiX1aM6RI
z+hh1VcxvyLqXZ3F0VLn6oMfUrdbi2AenDavRoaEG8EUwik=
-----END CERTIFICATE-----
