Certificate:
    Data:
        Version: 3 (0x2)
        Serial Number: 268435667 (0x100000d3)
        Signature Algorithm: sha256WithRSAEncryption
        Issuer: C=DE, ST=Hessen, O=privacyidea, CN=CA001
        Validity
            Not Before: Nov 13 14:12:14 2023 GMT
            Not After : Nov 12 14:12:14 2024 GMT
        Subject: C=DE, ST=Hessen, O=privacyidea, CN=requester.localdomain
        Subject Public Key Info:
            Public Key Algorithm: rsaEncryption
                RSA Public-Key: (2048 bit)
                Modulus:
                    00:cd:be:14:4f:fa:ce:01:3f:42:22:1b:1d:9c:af:
                    dd:92:d2:7f:db:6c:b7:3e:39:43:43:6b:13:03:f1:
                    05:f4:07:74:bc:76:69:28:0b:af:19:8e:d7:fc:e3:
                    cd:c6:58:f2:ca:7f:08:6d:53:fc:07:02:44:24:c6:
                    b4:34:4c:8c:04:fe:33:0e:40:e2:20:ba:02:73:5a:
                    f7:f5:4f:63:6e:cc:c6:b6:df:54:1d:37:39:7d:51:
                    36:26:5f:bd:dc:3f:a8:8b:6b:a2:ae:b6:9d:d6:21:
                    e7:df:41:b8:7a:28:2a:68:48:ca:a8:2d:ed:e1:e9:
                    46:5e:5a:72:6d:b4:84:38:87:91:fd:94:11:0b:28:
                    84:c6:c2:2f:2a:fb:01:f9:36:7a:09:75:d1:33:88:
                    3c:73:41:5b:c8:bf:94:89:70:a1:f0:c0:b9:2e:50:
                    53:1e:b1:17:64:69:f4:2d:81:e0:a9:0d:0e:32:e9:
                    ba:55:8a:85:f1:1b:6f:49:79:b4:7f:88:c3:0d:3e:
                    54:88:9b:3d:1f:38:8c:04:f3:ee:6a:63:2b:f5:c6:
                    db:b4:83:aa:c4:78:41:3a:7d:4b:e1:c8:3e:71:ca:
                    1b:61:59:ea:c6:c4:ca:32:5e:c9:e9:bf:12:29:e6:
                    c6:c3:63:fe:a0:55:da:7a:f1:60:98:4d:26:ed:fa:
                    70:2d
                Exponent: 65537 (0x10001)
        X509v3 extensions:
            X509v3 Key Usage: 
                Digital Signature, Key Encipherment
            X509v3 Basic Constraints: 
                CA:FALSE
            Netscape Cert Type: 
                SSL Server
            Netscape Comment: 
                OpenSSL Generated Server Certificate
            X509v3 Subject Key Identifier: 
                53:3F:ED:5D:09:07:B3:65:7B:AB:45:C9:24:5B:09:77:80:0A:96:ED
            X509v3 Authority Key Identifier: 
                keyid:F4:A7:C0:CC:91:46:AF:64:F3:91:F2:27:F8:C8:B2:6F:8A:87:32:73
                DirName:/C=DE/ST=Hessen/O=privacyidea/CN=CA001
                serial:FB:C8:EB:AC:83:CD:12:07

            X509v3 Extended Key Usage: 
                TLS Web Server Authentication
    Signature Algorithm: sha256WithRSAEncryption
         92:9d:c8:b5:48:cd:16:a7:25:e8:bc:e9:1f:dc:f5:4b:82:ac:
         cc:53:6d:75:53:67:27:11:4b:d7:5f:3c:59:44:d0:bb:ec:94:
         b2:d6:20:ed:21:32:0d:35:87:35:ce:1f:fb:3f:08:46:40:78:
         20:68:c0:1a:c3:d9:74:89:da:4c:39:fe:7b:c2:f3:e1:45:71:
         ec:c8:64:b8:4c:46:f1:0e:57:e7:61:03:73:5d:8f:2f:9f:fc:
         54:20:23:76:2e:59:47:49:5e:91:5f:a4:1b:f7:28:e0:89:5c:
         89:9c:dd:fc:e2:a2:c7:88:4a:4c:9f:d2:7f:be:9c:d6:eb:ad:
         a6:a2:10:d8:dd:f6:f6:f2:de:b0:88:70:09:d6:99:c5:a9:89:
         1c:70:2b:63:4a:06:45:15:45:5c:65:48:1b:bd:f1:2d:eb:83:
         1d:1a:34:5d:ae:f4:1f:90:e9:92:cf:23:cd:f9:88:d6:d1:fd:
         c8:18:48:f7:c2:19:db:a8:b5:d8:66:03:2a:5d:95:d8:6c:f2:
         25:60:a8:f9:50:c8:b0:cc:28:80:93:de:fd:51:12:df:d6:cd:
         ed:8b:a4:7f:97:05:19:65:db:03:59:1a:cb:72:3b:9c:2e:00:
         1f:e2:e0:67:60:3f:2b:d0:56:76:5f:5c:9f:77:d9:33:4f:5a:
         97:d4:c5:e0
-----BEGIN CERTIFICATE-----
MIIEJjCCAw6gAwIBAgIEEAAA0zANBgkqhkiG9w0BAQsFADBEMQswCQYDVQQGEwJE
RTEPMA0GA1UECAwGSGVzc2VuMRQwEgYDVQQKDAtwcml2YWN5aWRlYTEOMAwGA1UE
AwwFQ0EwMDEwHhcNMjMxMTEzMTQxMjE0WhcNMjQxMTEyMTQxMjE0WjBUMQswCQYD
VQQGEwJERTEPMA0GA1UECAwGSGVzc2VuMRQwEgYDVQQKDAtwcml2YWN5aWRlYTEe
MBwGA1UEAwwVcmVxdWVzdGVyLmxvY2FsZG9tYWluMIIBIjANBgkqhkiG9w0BAQEF
AAOCAQ8AMIIBCgKCAQEAzb4UT/rOAT9CIhsdnK/dktJ/22y3PjlDQ2sTA/EF9Ad0
vHZpKAuvGY7X/OPNxljyyn8IbVP8BwJEJMa0NEyMBP4zDkDiILoCc1r39U9jbszG
tt9UHTc5fVE2Jl+93D+oi2uirrad1iHn30G4eigqaEjKqC3t4elGXlpybbSEOIeR
/ZQRCyiExsIvKvsB+TZ6CXXRM4g8c0FbyL+UiXCh8MC5LlBTHrEXZGn0LYHgqQ0O
Mum6VYqF8RtvSXm0f4jDDT5UiJs9HziMBPPuamMr9cbbtIOqxHhBOn1L4cg+ccob
YVnqxsTKMl7J6b8SKebGw2P+oFXaevFgmE0m7fpwLQIDAQABo4IBDjCCAQowCwYD
VR0PBAQDAgWgMAkGA1UdEwQCMAAwEQYJYIZIAYb4QgEBBAQDAgZAMDMGCWCGSAGG
+EIBDQQmFiRPcGVuU1NMIEdlbmVyYXRlZCBTZXJ2ZXIgQ2VydGlmaWNhdGUwHQYD
VR0OBBYEFFM/7V0JB7Nle6tFySRbCXeACpbtMHQGA1UdIwRtMGuAFPSnwMyRRq9k
85HyJ/jIsm+KhzJzoUikRjBEMQswCQYDVQQGEwJERTEPMA0GA1UECAwGSGVzc2Vu
MRQwEgYDVQQKDAtwcml2YWN5aWRlYTEOMAwGA1UEAwwFQ0EwMDGCCQD7yOusg80S
BzATBgNVHSUEDDAKBggrBgEFBQcDATANBgkqhkiG9w0BAQsFAAOCAQEAkp3ItUjN
Fqcl6LzpH9z1S4KszFNtdVNnJxFL1188WUTQu+yUstYg7SEyDTWHNc4f+z8IRkB4
IGjAGsPZdInaTDn+e8Lz4UVx7MhkuExG8Q5X52EDc12PL5/8VCAjdi5ZR0lekV+k
G/co4IlciZzd/OKix4hKTJ/Sf76c1uutpqIQ2N329vLesIhwCdaZxamJHHArY0oG
RRVFXGVIG73xLeuDHRo0Xa70H5Dpks8jzfmI1tH9yBhI98IZ26i12GYDKl2V2Gzy
JWCo+VDIsMwogJPe/VES39bN7Yukf5cFGWXbA1kay3I7nC4AH+LgZ2A/K9BWdl9c
n3fZM09al9TF4A==
-----END CERTIFICATE-----
