Certificate:
    Data:
        Version: 3 (0x2)
        Serial Number: 268435670 (0x100000d6)
        Signature Algorithm: sha256WithRSAEncryption
        Issuer: C=DE, ST=Hessen, O=privacyidea, CN=CA001
        Validity
            Not Before: Nov 13 14:12:15 2023 GMT
            Not After : Nov 12 14:12:15 2024 GMT
        Subject: OU=realm1, CN=cornelius/emailAddress=user@localhost.localdomain
        Subject Public Key Info:
            Public Key Algorithm: rsaEncryption
                RSA Public-Key: (2048 bit)
                Modulus:
                    00:d7:d0:11:a6:6a:e6:a3:9b:a7:86:42:2e:33:92:
                    dc:4a:48:a0:b1:29:dc:55:bf:81:e1:0b:0e:9f:07:
                    61:91:7a:4c:07:83:5b:e6:1b:e0:d5:0e:a3:c3:0d:
                    da:23:ca:2e:23:8e:a2:72:85:2a:90:10:33:a6:69:
                    5b:a9:3b:13:d0:f0:42:1f:b2:54:72:7a:9d:50:3f:
                    2e:ae:2f:80:ac:28:19:80:a5:dd:af:95:8d:4f:d3:
                    ea:8c:7b:17:1c:97:ab:e7:eb:55:9c:ce:62:9a:d4:
                    26:9a:7e:ef:02:d0:f5:23:bd:e4:e7:23:2d:d6:7e:
                    c5:ea:9f:0c:9b:9e:43:c8:3f:1c:a9:32:4b:98:80:
                    29:3e:6e:cf:91:c4:93:61:e8:27:e7:2c:bd:49:e2:
                    92:a4:02:f9:07:e8:f1:67:fc:51:7f:c2:32:60:73:
                    b0:eb:f3:e9:19:02:c7:91:2d:e1:1c:e6:6f:58:d6:
                    9e:b7:c1:0a:9e:8b:b6:b4:6a:60:15:e1:9f:ac:53:
                    be:36:d2:10:9f:02:f4:08:6d:04:b7:e6:88:85:e7:
                    f1:82:0c:ca:21:40:21:87:49:5a:81:46:ae:dd:cc:
                    5d:7a:a7:05:f3:c2:6a:dc:5b:b2:ff:cb:f1:b8:2f:
                    f5:ac:1f:81:65:28:f2:b1:00:44:a6:d7:2f:41:7f:
                    7b:19
                Exponent: 65537 (0x10001)
        X509v3 extensions:
            X509v3 Key Usage: 
                Digital Signature, Key Encipherment
            X509v3 Basic Constraints: 
                CA:FALSE
            Netscape Cert Type: 
                SSL Server
            Netscape Comment: 
                OpenSSL Generated Server Certificate
            X509v3 Subject Key Identifier: 
                3E:60:6F:40:2A:6C:6C:D9:B1:65:D3:B2:50:C3:E3:90:D4:53:04:D8
            X509v3 Authority Key Identifier: 
                keyid:F4:A7:C0:CC:91:46:AF:64:F3:91:F2:27:F8:C8:B2:6F:8A:87:32:73
                DirName:/C=DE/ST=Hessen/O=privacyidea/CN=CA001
                serial:FB:C8:EB:AC:83:CD:12:07

            X509v3 Extended Key Usage: 
                TLS Web Server Authentication
    Signature Algorithm: sha256WithRSAEncryption
         7b:d8:aa:cc:8a:a3:d2:95:c7:39:78:21:b6:5b:d0:3e:c7:85:
         73:df:34:c8:46:8e:bf:1d:f8:39:08:78:9e:1f:08:cb:1b:e2:
         c1:3a:7b:9e:1a:78:63:81:f6:2b:3e:99:82:1d:f8:b2:f4:22:
         fc:fb:7a:61:ea:7a:11:35:82:cc:06:ec:37:85:59:44:b5:2a:
         c3:4e:28:48:cb:7b:a7:b2:29:40:f1:d2:06:f2:31:30:38:3e:
         fb:7e:bc:97:0f:4a:67:93:a1:18:91:30:7a:b2:1a:29:cd:f5:
         c7:67:b5:46:3d:35:da:11:5d:3a:f5:b3:49:d7:bd:f7:06:52:
         5c:09:f6:6c:6b:de:fe:82:d6:26:b2:b9:97:43:e6:f6:fd:b7:
         00:73:e5:c3:1f:fa:0e:4e:f0:e4:91:d7:d0:23:fb:63:be:07:
         f5:dd:49:71:27:40:fd:d1:fd:c6:28:90:2f:ef:cd:5c:74:2d:
         c0:81:9d:7c:f0:af:3f:c9:08:50:b0:1e:5a:93:61:0e:5b:41:
         db:dd:09:a1:c9:57:ae:5c:a9:35:8e:30:ba:2f:a9:64:3d:46:
         96:2c:eb:d1:cf:ab:13:e7:ed:ea:c1:dc:e8:ad:49:99:c0:76:
         d2:bf:d5:b3:de:e5:27:79:ab:1c:c8:44:77:c4:95:c7:66:ce:
         d2:9d:c8:a8
-----BEGIN CERTIFICATE-----
MIIEIjCCAwqgAwIBAgIEEAAA1jANBgkqhkiG9w0BAQsFADBEMQswCQYDVQQGEwJE
RTEPMA0GA1UECAwGSGVzc2VuMRQwEgYDVQQKDAtwcml2YWN5aWRlYTEOMAwGA1UE
AwwFQ0EwMDEwHhcNMjMxMTEzMTQxMjE1WhcNMjQxMTEyMTQxMjE1WjBQMQ8wDQYD
VQQLDAZyZWFsbTExEjAQBgNVBAMMCWNvcm5lbGl1czEpMCcGCSqGSIb3DQEJARYa
dXNlckBsb2NhbGhvc3QubG9jYWxkb21haW4wggEiMA0GCSqGSIb3DQEBAQUAA4IB
DwAwggEKAoIBAQDX0BGmauajm6eGQi4zktxKSKCxKdxVv4HhCw6fB2GRekwHg1vm
G+DVDqPDDdojyi4jjqJyhSqQEDOmaVupOxPQ8EIfslRyep1QPy6uL4CsKBmApd2v
lY1P0+qMexccl6vn61WczmKa1Caafu8C0PUjveTnIy3WfsXqnwybnkPIPxypMkuY
gCk+bs+RxJNh6CfnLL1J4pKkAvkH6PFn/FF/wjJgc7Dr8+kZAseRLeEc5m9Y1p63
wQqei7a0amAV4Z+sU7420hCfAvQIbQS35oiF5/GCDMohQCGHSVqBRq7dzF16pwXz
wmrcW7L/y/G4L/WsH4FlKPKxAESm1y9Bf3sZAgMBAAGjggEOMIIBCjALBgNVHQ8E
BAMCBaAwCQYDVR0TBAIwADARBglghkgBhvhCAQEEBAMCBkAwMwYJYIZIAYb4QgEN
BCYWJE9wZW5TU0wgR2VuZXJhdGVkIFNlcnZlciBDZXJ0aWZpY2F0ZTAdBgNVHQ4E
FgQUPmBvQCpsbNmxZdOyUMPjkNRTBNgwdAYDVR0jBG0wa4AU9KfAzJFGr2TzkfIn
+Miyb4qHMnOhSKRGMEQxCzAJBgNVBAYTAkRFMQ8wDQYDVQQIDAZIZXNzZW4xFDAS
BgNVBAoMC3ByaXZhY3lpZGVhMQ4wDAYDVQQDDAVDQTAwMYIJAPvI66yDzRIHMBMG
A1UdJQQMMAoGCCsGAQUFBwMBMA0GCSqGSIb3DQEBCwUAA4IBAQB72KrMiqPSlcc5
eCG2W9A+x4Vz3zTIRo6/Hfg5CHieHwjLG+LBOnueGnhjgfYrPpmCHfiy9CL8+3ph
6noRNYLMBuw3hVlEtSrDTihIy3unsilA8dIG8jEwOD77fryXD0pnk6EYkTB6shop
zfXHZ7VGPTXaEV069bNJ1733BlJcCfZsa97+gtYmsrmXQ+b2/bcAc+XDH/oOTvDk
kdfQI/tjvgf13UlxJ0D90f3GKJAv781cdC3AgZ188K8/yQhQsB5ak2EOW0Hb3Qmh
yVeuXKk1jjC6L6lkPUaWLOvRz6sT5+3qwdzorUmZwHbSv9Wz3uUneascyER3xJXH
Zs7Sncio
-----END CERTIFICATE-----
