Certificate:
    Data:
        Version: 3 (0x2)
        Serial Number: 268435668 (0x100000d4)
        Signature Algorithm: sha256WithRSAEncryption
        Issuer: C=DE, ST=Hessen, O=privacyidea, CN=CA001
        Validity
            Not Before: Nov 13 14:12:14 2023 GMT
            Not After : Nov 12 14:12:14 2024 GMT
        Subject: CN=cn=cornelius
        Subject Public Key Info:
            Public Key Algorithm: rsaEncryption
                RSA Public-Key: (2048 bit)
                Modulus:
                    00:ce:a4:39:30:25:73:e4:9d:e6:37:3b:85:59:83:
                    ef:a3:6e:f9:83:b9:f7:48:b0:0b:d5:e8:05:40:61:
                    cd:c5:5a:bc:11:2f:5b:4e:d0:4f:b8:d0:e8:7f:05:
                    ab:ad:24:0b:90:d4:3f:60:ec:15:b6:4e:be:8e:d9:
                    26:ab:f2:2f:7f:35:c2:a6:a1:bc:52:3a:d9:88:fb:
                    b3:fa:71:20:b9:51:0e:f8:af:0d:16:be:bd:5d:b9:
                    ab:30:d5:ac:6b:3c:bc:ee:28:4a:4f:6f:d4:09:15:
                    f7:98:af:77:db:36:15:2e:1e:ee:0f:d0:d9:60:ad:
                    db:b9:c4:3f:c6:25:32:f9:e3:e9:50:b8:ec:84:a0:
                    c4:d2:9c:fd:ce:25:80:85:7e:3a:ad:4c:a7:40:1b:
                    0a:58:18:9f:c2:5e:36:e1:d1:44:e9:46:b6:dc:b4:
                    28:a2:ec:ed:02:f7:25:79:e1:86:8e:69:67:52:ee:
                    82:21:b7:84:2d:cc:e7:a8:39:57:7d:a3:1e:e9:50:
                    63:77:29:ab:e4:a5:ff:dc:ee:4c:4b:5e:08:2b:62:
                    08:2d:75:b8:26:6c:93:eb:f5:45:ea:cd:83:58:53:
                    15:46:e6:6b:43:c1:2f:d9:88:4b:3d:d5:fd:0c:ff:
                    51:52:ed:54:fb:27:2d:59:ef:4c:50:ce:71:cd:eb:
                    5a:99
                Exponent: 65537 (0x10001)
        X509v3 extensions:
            X509v3 Key Usage: 
                Digital Signature, Key Encipherment
            X509v3 Basic Constraints: 
                CA:FALSE
            Netscape Cert Type: 
                SSL Server
            Netscape Comment: 
                OpenSSL Generated Server Certificate
            X509v3 Subject Key Identifier: 
                0E:D5:BA:4E:7D:92:57:15:FD:61:4E:34:5B:E9:62:D0:20:1C:7D:08
            X509v3 Authority Key Identifier: 
                keyid:F4:A7:C0:CC:91:46:AF:64:F3:91:F2:27:F8:C8:B2:6F:8A:87:32:73
                DirName:/C=DE/ST=Hessen/O=privacyidea/CN=CA001
                serial:FB:C8:EB:AC:83:CD:12:07

            X509v3 Extended Key Usage: 
                TLS Web Server Authentication
    Signature Algorithm: sha256WithRSAEncryption
         63:38:9d:e4:d3:83:cd:1a:70:0f:fc:5d:69:67:6d:de:b9:3a:
         79:7a:11:de:f2:f4:45:c3:89:26:1c:57:ec:dd:82:a5:72:b2:
         f5:b9:1d:48:d5:21:7b:dc:a8:92:24:fb:1f:5d:78:a8:b7:a4:
         12:60:fd:f7:00:99:e5:de:86:2c:ab:af:a4:bd:4b:18:fc:d8:
         80:12:11:f0:49:13:dc:13:7a:1c:aa:dc:06:e4:99:b0:05:00:
         2a:69:8d:37:1d:45:56:0c:f8:bd:69:cd:11:ce:96:e2:07:c2:
         56:24:16:0d:25:43:fb:3b:1d:3e:bf:a7:f9:59:1f:d6:49:e9:
         12:7f:67:39:d0:63:10:de:39:52:f3:3c:33:0e:c6:be:cd:99:
         3a:54:de:f7:81:fb:d8:c1:b4:3c:d5:0b:bf:93:51:75:e6:54:
         6e:e1:df:42:78:ea:96:2b:32:36:2f:95:b4:81:50:37:52:c6:
         82:0e:ba:42:aa:e7:97:23:1d:52:1f:e9:83:ac:aa:92:23:27:
         5f:c1:e3:e6:bc:21:d1:30:a4:02:a7:55:05:d3:08:74:33:91:
         3e:63:45:e1:34:e5:22:d0:4c:a2:70:7e:4d:92:cc:05:24:53:
         42:1c:28:11:07:6a:c2:2d:12:95:73:a3:c2:65:ad:b0:ca:26:
         05:1d:e0:18
-----BEGIN CERTIFICATE-----
MIID6TCCAtGgAwIBAgIEEAAA1DANBgkqhkiG9w0BAQsFADBEMQswCQYDVQQGEwJE
RTEPMA0GA1UECAwGSGVzc2VuMRQwEgYDVQQKDAtwcml2YWN5aWRlYTEOMAwGA1UE
AwwFQ0EwMDEwHhcNMjMxMTEzMTQxMjE0WhcNMjQxMTEyMTQxMjE0WjAXMRUwEwYD
VQQDDAxjbj1jb3JuZWxpdXMwggEiMA0GCSqGSIb3DQEBAQUAA4IBDwAwggEKAoIB
AQDOpDkwJXPkneY3O4VZg++jbvmDufdIsAvV6AVAYc3FWrwRL1tO0E+40Oh/Baut
JAuQ1D9g7BW2Tr6O2Sar8i9/NcKmobxSOtmI+7P6cSC5UQ74rw0Wvr1duasw1axr
PLzuKEpPb9QJFfeYr3fbNhUuHu4P0Nlgrdu5xD/GJTL54+lQuOyEoMTSnP3OJYCF
fjqtTKdAGwpYGJ/CXjbh0UTpRrbctCii7O0C9yV54YaOaWdS7oIht4QtzOeoOVd9
ox7pUGN3Kavkpf/c7kxLXggrYggtdbgmbJPr9UXqzYNYUxVG5mtDwS/ZiEs91f0M
/1FS7VT7Jy1Z70xQznHN61qZAgMBAAGjggEOMIIBCjALBgNVHQ8EBAMCBaAwCQYD
VR0TBAIwADARBglghkgBhvhCAQEEBAMCBkAwMwYJYIZIAYb4QgENBCYWJE9wZW5T
U0wgR2VuZXJhdGVkIFNlcnZlciBDZXJ0aWZpY2F0ZTAdBgNVHQ4EFgQUDtW6Tn2S
VxX9YU40W+li0CAcfQgwdAYDVR0jBG0wa4AU9KfAzJFGr2TzkfIn+Miyb4qHMnOh
SKRGMEQxCzAJBgNVBAYTAkRFMQ8wDQYDVQQIDAZIZXNzZW4xFDASBgNVBAoMC3By
aXZhY3lpZGVhMQ4wDAYDVQQDDAVDQTAwMYIJAPvI66yDzRIHMBMGA1UdJQQMMAoG
CCsGAQUFBwMBMA0GCSqGSIb3DQEBCwUAA4IBAQBjOJ3k04PNGnAP/F1pZ23euTp5
ehHe8vRFw4kmHFfs3YKlcrL1uR1I1SF73KiSJPsfXXiot6QSYP33AJnl3oYsq6+k
vUsY/NiAEhHwSRPcE3ocqtwG5JmwBQAqaY03HUVWDPi9ac0RzpbiB8JWJBYNJUP7
Ox0+v6f5WR/WSekSf2c50GMQ3jlS8zwzDsa+zZk6VN73gfvYwbQ81Qu/k1F15lRu
4d9CeOqWKzI2L5W0gVA3UsaCDrpCqueXIx1SH+mDrKqSIydfwePmvCHRMKQCp1UF
0wh0M5E+Y0XhNOUi0EyicH5NkswFJFNCHCgRB2rCLRKVc6PCZa2wyiYFHeAY
-----END CERTIFICATE-----
